target datalayout = "e-m:e-p270:32:32-p271:32:32-p272:64:64-i64:64-i128:128-f80:128-n8:16:32:64-S128"
target triple = "x86_64-unknown-linux-gnu"

%struct.PropertyInfo = type { ptr, ptr, ptr, i8, ptr, ptr, ptr, ptr, ptr, ptr }
%struct.Property = type { ptr, ptr, i64, i8, i64, i8, %union.anon, i32, ptr, i32, ptr }
%union.anon = type { i64 }

; Function Attrs: nounwind sspstrong uwtable
define internal void @array_elem_prop(ptr noalias sret(%struct.Property) align 8 %agg.result, ptr noundef %obj, ptr noundef %parent_prop, ptr noundef %name, ptr noundef %elem) #0 {
entry:
  %obj.addr = alloca ptr, align 8
  %parent_prop.addr = alloca ptr, align 8
  %name.addr = alloca ptr, align 8
  %elem.addr = alloca ptr, align 8
  store ptr %obj, ptr %obj.addr, align 8
  store ptr %parent_prop, ptr %parent_prop.addr, align 8
  store ptr %name, ptr %name.addr, align 8
  store ptr %elem, ptr %elem.addr, align 8
  %name1 = getelementptr inbounds %struct.Property, ptr %agg.result, i32 0, i32 0
  %0 = load ptr, ptr %name.addr, align 8
  store ptr %0, ptr %name1, align 8
  %info = getelementptr inbounds %struct.Property, ptr %agg.result, i32 0, i32 1
  %1 = load ptr, ptr %parent_prop.addr, align 8
  %arrayinfo = getelementptr inbounds %struct.Property, ptr %1, i32 0, i32 8
  %2 = load ptr, ptr %arrayinfo, align 8
  store ptr %2, ptr %info, align 8
  %offset = getelementptr inbounds %struct.Property, ptr %agg.result, i32 0, i32 2
  %3 = load ptr, ptr %elem.addr, align 8
  %4 = ptrtoint ptr %3 to i64
  %5 = load ptr, ptr %obj.addr, align 8
  %6 = ptrtoint ptr %5 to i64
  %sub = sub i64 %4, %6
  store i64 %sub, ptr %offset, align 8
  %bitnr = getelementptr inbounds %struct.Property, ptr %agg.result, i32 0, i32 3
  store i8 0, ptr %bitnr, align 8
  %bitmask = getelementptr inbounds %struct.Property, ptr %agg.result, i32 0, i32 4
  store i64 0, ptr %bitmask, align 8
  %set_default = getelementptr inbounds %struct.Property, ptr %agg.result, i32 0, i32 5
  store i8 0, ptr %set_default, align 8
  %defval = getelementptr inbounds %struct.Property, ptr %agg.result, i32 0, i32 6
  call void @llvm.memset.p0.i64(ptr align 8 %defval, i8 0, i64 8, i1 false)
  %arrayoffset = getelementptr inbounds %struct.Property, ptr %agg.result, i32 0, i32 7
  store i32 0, ptr %arrayoffset, align 8
  %arrayinfo2 = getelementptr inbounds %struct.Property, ptr %agg.result, i32 0, i32 8
  store ptr null, ptr %arrayinfo2, align 8
  %arrayfieldsize = getelementptr inbounds %struct.Property, ptr %agg.result, i32 0, i32 9
  store i32 0, ptr %arrayfieldsize, align 8
  %link_type = getelementptr inbounds %struct.Property, ptr %agg.result, i32 0, i32 10
  store ptr null, ptr %link_type, align 8
  ret void
}

; Function Attrs: nounwind sspstrong uwtable
define dso_local ptr @object_field_prop_ptr(ptr noundef %obj, ptr noundef %prop) #0 {
entry:
  %obj.addr = alloca ptr, align 8
  %prop.addr = alloca ptr, align 8
  %ptr = alloca ptr, align 8
  store ptr %obj, ptr %obj.addr, align 8
  store ptr %prop, ptr %prop.addr, align 8
  %0 = load ptr, ptr %obj.addr, align 8
  store ptr %0, ptr %ptr, align 8
  %1 = load ptr, ptr %prop.addr, align 8
  %offset = getelementptr inbounds %struct.Property, ptr %1, i32 0, i32 2
  %2 = load i64, ptr %offset, align 8
  %3 = load ptr, ptr %ptr, align 8
  %add.ptr = getelementptr i8, ptr %3, i64 %2
  store ptr %add.ptr, ptr %ptr, align 8
  %4 = load ptr, ptr %ptr, align 8
  ret ptr %4
}

; Function Attrs: nounwind sspstrong uwtable
define internal void @release_prop_array(ptr noundef %obj, ptr noundef %name, ptr noundef %opaque) #0 {
entry:
  %obj.addr = alloca ptr, align 8
  %name.addr = alloca ptr, align 8
  %opaque.addr = alloca ptr, align 8
  %prop = alloca ptr, align 8
  %alenptr = alloca ptr, align 8
  %arrayptr = alloca ptr, align 8
  %elem = alloca ptr, align 8
  %i = alloca i32, align 4
  %elem_prop = alloca %struct.Property, align 8
  store ptr %obj, ptr %obj.addr, align 8
  store ptr %name, ptr %name.addr, align 8
  store ptr %opaque, ptr %opaque.addr, align 8
  %0 = load ptr, ptr %opaque.addr, align 8
  store ptr %0, ptr %prop, align 8
  %1 = load ptr, ptr %obj.addr, align 8
  %2 = load ptr, ptr %prop, align 8
  %call = call ptr @object_field_prop_ptr(ptr noundef %1, ptr noundef %2)
  store ptr %call, ptr %alenptr, align 8
  %3 = load ptr, ptr %obj.addr, align 8
  %4 = load ptr, ptr %prop, align 8
  %arrayoffset = getelementptr inbounds %struct.Property, ptr %4, i32 0, i32 7
  %5 = load i32, ptr %arrayoffset, align 8
  %idx.ext = sext i32 %5 to i64
  %add.ptr = getelementptr i8, ptr %3, i64 %idx.ext
  store ptr %add.ptr, ptr %arrayptr, align 8
  %6 = load ptr, ptr %arrayptr, align 8
  %7 = load ptr, ptr %6, align 8
  store ptr %7, ptr %elem, align 8
  %8 = load ptr, ptr %prop, align 8
  %arrayinfo = getelementptr inbounds %struct.Property, ptr %8, i32 0, i32 8
  %9 = load ptr, ptr %arrayinfo, align 8
  %release = getelementptr inbounds %struct.PropertyInfo, ptr %9, i32 0, i32 9
  %10 = load ptr, ptr %release, align 8
  %tobool = icmp ne ptr %10, null
  br i1 %tobool, label %if.end, label %if.then

if.then:                                          ; preds = %entry
  br label %for.end

if.end:                                           ; preds = %entry
  store i32 0, ptr %i, align 4
  br label %for.cond

for.cond:                                         ; preds = %for.inc, %if.end
  %11 = load i32, ptr %i, align 4
  %12 = load ptr, ptr %alenptr, align 8
  %13 = load i32, ptr %12, align 4
  %cmp = icmp ult i32 %11, %13
  br i1 %cmp, label %for.body, label %for.end

for.body:                                         ; preds = %for.cond
  %14 = load ptr, ptr %obj.addr, align 8
  %15 = load ptr, ptr %prop, align 8
  %16 = load ptr, ptr %name.addr, align 8
  %17 = load ptr, ptr %elem, align 8
  call void @array_elem_prop(ptr sret(%struct.Property) align 8 %elem_prop, ptr noundef %14, ptr noundef %15, ptr noundef %16, ptr noundef %17)
  %18 = load ptr, ptr %prop, align 8
  %arrayinfo1 = getelementptr inbounds %struct.Property, ptr %18, i32 0, i32 8
  %19 = load ptr, ptr %arrayinfo1, align 8
  %release2 = getelementptr inbounds %struct.PropertyInfo, ptr %19, i32 0, i32 9
  %20 = load ptr, ptr %release2, align 8
  %21 = load ptr, ptr %obj.addr, align 8
  call void %20(ptr noundef %21, ptr noundef null, ptr noundef %elem_prop)
  %22 = load ptr, ptr %prop, align 8
  %arrayfieldsize = getelementptr inbounds %struct.Property, ptr %22, i32 0, i32 9
  %23 = load i32, ptr %arrayfieldsize, align 8
  %24 = load ptr, ptr %elem, align 8
  %idx.ext3 = sext i32 %23 to i64
  %add.ptr4 = getelementptr i8, ptr %24, i64 %idx.ext3
  store ptr %add.ptr4, ptr %elem, align 8
  br label %for.inc

for.inc:                                          ; preds = %for.body
  %25 = load i32, ptr %i, align 4
  %inc = add i32 %25, 1
  store i32 %inc, ptr %i, align 4
  br label %for.cond, !llvm.loop !12

for.end:                                          ; preds = %for.cond, %if.then
  ret void
}