; Function Attrs: nounwind sspstrong uwtable
define internal void @release_prop_array(ptr noundef %obj, ptr noundef %name, ptr noundef readonly captures(none) %opaque) #0 {
entry:
  %elem_prop = alloca %struct.Property, align 8
  %offset.i = getelementptr inbounds nuw i8, ptr %opaque, i64 16
  %0 = load i64, ptr %offset.i, align 8
  %add.ptr.i = getelementptr i8, ptr %obj, i64 %0
  %arrayinfo = getelementptr inbounds nuw i8, ptr %opaque, i64 64
  %1 = load ptr, ptr %arrayinfo, align 8
  %release = getelementptr inbounds nuw i8, ptr %1, i64 72
  %2 = load ptr, ptr %release, align 8
  %tobool.not = icmp eq ptr %2, null
  br i1 %tobool.not, label %for.end, label %if.end

if.end:                                           ; preds = %entry
  %3 = load i32, ptr %add.ptr.i, align 4
  %cmp12.not = icmp eq i32 %3, 0
  br i1 %cmp12.not, label %for.end, label %for.body.lr.ph

for.body.lr.ph:                                   ; preds = %if.end
  %arrayoffset = getelementptr inbounds nuw i8, ptr %opaque, i64 56
  %4 = load i32, ptr %arrayoffset, align 8
  %idx.ext = sext i32 %4 to i64
  %add.ptr = getelementptr i8, ptr %obj, i64 %idx.ext
  %5 = load ptr, ptr %add.ptr, align 8
  %info.i = getelementptr inbounds nuw i8, ptr %elem_prop, i64 8
  %offset.i11 = getelementptr inbounds nuw i8, ptr %elem_prop, i64 16
  %6 = ptrtoint ptr %obj to i64
  %bitnr.i = getelementptr inbounds nuw i8, ptr %elem_prop, i64 24
  %bitmask.i = getelementptr inbounds nuw i8, ptr %elem_prop, i64 32
  %set_default.i = getelementptr inbounds nuw i8, ptr %elem_prop, i64 40
  %defval.i = getelementptr inbounds nuw i8, ptr %elem_prop, i64 48
  %arrayoffset.i = getelementptr inbounds nuw i8, ptr %elem_prop, i64 56
  %arrayinfo2.i = getelementptr inbounds nuw i8, ptr %elem_prop, i64 64
  %arrayfieldsize.i = getelementptr inbounds nuw i8, ptr %elem_prop, i64 72
  %link_type.i = getelementptr inbounds nuw i8, ptr %elem_prop, i64 80
  %arrayfieldsize = getelementptr inbounds nuw i8, ptr %opaque, i64 72
  br label %for.body

for.body:                                         ; preds = %for.body.lr.ph, %for.body
  %i.014 = phi i32 [ 0, %for.body.lr.ph ], [ %inc, %for.body ]
  %elem.013 = phi ptr [ %5, %for.body.lr.ph ], [ %add.ptr4, %for.body ]
  %opaque.val = load ptr, ptr %arrayinfo, align 8
  store ptr %name, ptr %elem_prop, align 8, !alias.scope !18
  store ptr %opaque.val, ptr %info.i, align 8, !alias.scope !18
  %7 = ptrtoint ptr %elem.013 to i64
  %sub.i = sub i64 %7, %6
  store i64 %sub.i, ptr %offset.i11, align 8, !alias.scope !18
  store i8 0, ptr %bitnr.i, align 8, !alias.scope !18
  store i64 0, ptr %bitmask.i, align 8, !alias.scope !18
  store i8 0, ptr %set_default.i, align 8, !alias.scope !18
  store i64 0, ptr %defval.i, align 8, !alias.scope !18
  store i32 0, ptr %arrayoffset.i, align 8, !alias.scope !18
  store ptr null, ptr %arrayinfo2.i, align 8, !alias.scope !18
  store i32 0, ptr %arrayfieldsize.i, align 8, !alias.scope !18
  store ptr null, ptr %link_type.i, align 8, !alias.scope !18
  %release2 = getelementptr inbounds nuw i8, ptr %opaque.val, i64 72
  %8 = load ptr, ptr %release2, align 8
  call void %8(ptr noundef nonnull %obj, ptr noundef null, ptr noundef nonnull %elem_prop) #9
  %9 = load i32, ptr %arrayfieldsize, align 8
  %idx.ext3 = sext i32 %9 to i64
  %add.ptr4 = getelementptr i8, ptr %elem.013, i64 %idx.ext3
  %inc = add nuw i32 %i.014, 1
  %10 = load i32, ptr %add.ptr.i, align 4
  %cmp = icmp ult i32 %inc, %10
  br i1 %cmp, label %for.body, label %for.end, !llvm.loop !21

for.end:                                          ; preds = %for.body, %if.end, %entry
  ret void
}